target datalayout = "e-m:e-p270:32:32-p271:32:32-p272:64:64-i64:64-i128:128-f80:128-n8:16:32:64-S128"
target triple = "x86_64-pc-linux-gnu"

%struct.H264SliceContext = type { ptr, %struct.GetBitContext, ptr, i32, i32, i32, i32, i32, [2 x i32], i32, i32, i32, i32, i32, %struct.H264PredWeightTable, i32, i32, i32, i32, [40 x i8], ptr, i32, i32, i32, [2 x i32], i32, i32, i32, [2 x i32], ptr, i32, i32, i32, i32, i32, i64, i64, i64, i64, i32, i32, i32, i32, i32, i32, i32, i32, i32, i32, i32, i32, i32, i32, i32, i32, i32, i32, i32, i32, [32 x i32], [2 x [32 x i32]], [2 x [48 x i32]], [2 x [2 x [48 x i32]]], [2 x i32], i32, [2 x [48 x %struct.H264Ref]], [2 x [32 x %struct.anon]], [2 x i32], i32, ptr, ptr, ptr, [2 x ptr], i32, i32, [2 x i32], [120 x i8], [8 x i8], [2 x [40 x [2 x i16]]], [2 x [40 x i8]], [2 x [40 x [2 x i8]]], [40 x i8], [4 x i16], [1536 x i16], [3 x [32 x i16]], [512 x i16], [2 x ptr], %struct.CABACContext, [1024 x i8], i32, [67 x %struct.MMCO], i32, i32, i32, i32, i32, i32, [2 x i32], i32, i32 }
%struct.GetBitContext = type { ptr, ptr, i32, i32, i32 }
%struct.H264PredWeightTable = type { i32, i32, i32, i32, [2 x i32], [2 x i32], [48 x [2 x [2 x i32]]], [48 x [2 x [2 x [2 x i32]]]], [48 x [48 x [2 x i32]]] }
%struct.H264Ref = type { [3 x ptr], [3 x i32], i32, i32, i32, ptr }
%struct.anon = type { i8, i32 }
%struct.CABACContext = type { i32, i32, ptr, ptr, ptr }
%struct.MMCO = type { i32, i32, i32 }

; Function Attrs: nounwind uwtable
define internal void @refill(ptr noundef %0) #0 {
  %2 = alloca ptr, align 8
  store ptr %0, ptr %2, align 8, !tbaa !173
  %3 = load ptr, ptr %2, align 8, !tbaa !173
  %4 = getelementptr inbounds nuw %struct.CABACContext, ptr %3, i32 0, i32 3
  %5 = load ptr, ptr %4, align 8, !tbaa !202
  %6 = getelementptr inbounds i8, ptr %5, i64 0
  %7 = load i8, ptr %6, align 1, !tbaa !81
  %8 = zext i8 %7 to i32
  %9 = shl i32 %8, 9
  %10 = load ptr, ptr %2, align 8, !tbaa !173
  %11 = getelementptr inbounds nuw %struct.CABACContext, ptr %10, i32 0, i32 3
  %12 = load ptr, ptr %11, align 8, !tbaa !202
  %13 = getelementptr inbounds i8, ptr %12, i64 1
  %14 = load i8, ptr %13, align 1, !tbaa !81
  %15 = zext i8 %14 to i32
  %16 = shl i32 %15, 1
  %17 = add nsw i32 %9, %16
  %18 = load ptr, ptr %2, align 8, !tbaa !173
  %19 = getelementptr inbounds nuw %struct.CABACContext, ptr %18, i32 0, i32 0
  %20 = load i32, ptr %19, align 8, !tbaa !201
  %21 = add nsw i32 %20, %17
  store i32 %21, ptr %19, align 8, !tbaa !201
  %22 = load ptr, ptr %2, align 8, !tbaa !173
  %23 = getelementptr inbounds nuw %struct.CABACContext, ptr %22, i32 0, i32 0
  %24 = load i32, ptr %23, align 8, !tbaa !201
  %25 = sub nsw i32 %24, 65535
  store i32 %25, ptr %23, align 8, !tbaa !201
  %26 = load ptr, ptr %2, align 8, !tbaa !173
  %27 = getelementptr inbounds nuw %struct.CABACContext, ptr %26, i32 0, i32 3
  %28 = load ptr, ptr %27, align 8, !tbaa !202
  %29 = getelementptr inbounds i8, ptr %28, i64 2
  store ptr %29, ptr %27, align 8, !tbaa !202
  ret void
}

; Function Attrs: inlinehint nounwind uwtable
define internal void @renorm_cabac_decoder_once(ptr noundef %0) #8 {
  %2 = alloca ptr, align 8
  %3 = alloca i32, align 4
  store ptr %0, ptr %2, align 8, !tbaa !173
  call void @llvm.lifetime.start.p0(i64 4, ptr %3) #9
  %4 = load ptr, ptr %2, align 8, !tbaa !173
  %5 = getelementptr inbounds nuw %struct.CABACContext, ptr %4, i32 0, i32 1
  %6 = load i32, ptr %5, align 4, !tbaa !200
  %7 = sub nsw i32 %6, 256
  %8 = lshr i32 %7, 31
  store i32 %8, ptr %3, align 4, !tbaa !77
  %9 = load i32, ptr %3, align 4, !tbaa !77
  %10 = load ptr, ptr %2, align 8, !tbaa !173
  %11 = getelementptr inbounds nuw %struct.CABACContext, ptr %10, i32 0, i32 1
  %12 = load i32, ptr %11, align 4, !tbaa !200
  %13 = shl i32 %12, %9
  store i32 %13, ptr %11, align 4, !tbaa !200
  %14 = load i32, ptr %3, align 4, !tbaa !77
  %15 = load ptr, ptr %2, align 8, !tbaa !173
  %16 = getelementptr inbounds nuw %struct.CABACContext, ptr %15, i32 0, i32 0
  %17 = load i32, ptr %16, align 8, !tbaa !201
  %18 = shl i32 %17, %14
  store i32 %18, ptr %16, align 8, !tbaa !201
  %19 = load ptr, ptr %2, align 8, !tbaa !173
  %20 = getelementptr inbounds nuw %struct.CABACContext, ptr %19, i32 0, i32 0
  %21 = load i32, ptr %20, align 8, !tbaa !201
  %22 = and i32 %21, 65535
  %23 = icmp ne i32 %22, 0
  br i1 %23, label %26, label %24

24:                                               ; preds = %1
  %25 = load ptr, ptr %2, align 8, !tbaa !173
  call void @refill(ptr noundef %25)
  br label %26

26:                                               ; preds = %24, %1
  call void @llvm.lifetime.end.p0(i64 4, ptr %3) #9
  ret void
}

; Function Attrs: nounwind uwtable
define internal i32 @get_cabac_terminate(ptr noundef %0) #0 {
  %2 = alloca i32, align 4
  %3 = alloca ptr, align 8
  store ptr %0, ptr %3, align 8, !tbaa !173
  %4 = load ptr, ptr %3, align 8, !tbaa !173
  %5 = getelementptr inbounds nuw %struct.CABACContext, ptr %4, i32 0, i32 1
  %6 = load i32, ptr %5, align 4, !tbaa !200
  %7 = sub nsw i32 %6, 2
  store i32 %7, ptr %5, align 4, !tbaa !200
  %8 = load ptr, ptr %3, align 8, !tbaa !173
  %9 = getelementptr inbounds nuw %struct.CABACContext, ptr %8, i32 0, i32 0
  %10 = load i32, ptr %9, align 8, !tbaa !201
  %11 = load ptr, ptr %3, align 8, !tbaa !173
  %12 = getelementptr inbounds nuw %struct.CABACContext, ptr %11, i32 0, i32 1
  %13 = load i32, ptr %12, align 4, !tbaa !200
  %14 = shl i32 %13, 17
  %15 = icmp slt i32 %10, %14
  br i1 %15, label %16, label %18

16:                                               ; preds = %1
  %17 = load ptr, ptr %3, align 8, !tbaa !173
  call void @renorm_cabac_decoder_once(ptr noundef %17)
  store i32 0, ptr %2, align 4
  br label %29

18:                                               ; preds = %1
  %19 = load ptr, ptr %3, align 8, !tbaa !173
  %20 = getelementptr inbounds nuw %struct.CABACContext, ptr %19, i32 0, i32 3
  %21 = load ptr, ptr %20, align 8, !tbaa !202
  %22 = load ptr, ptr %3, align 8, !tbaa !173
  %23 = getelementptr inbounds nuw %struct.CABACContext, ptr %22, i32 0, i32 2
  %24 = load ptr, ptr %23, align 8, !tbaa !203
  %25 = ptrtoint ptr %21 to i64
  %26 = ptrtoint ptr %24 to i64
  %27 = sub i64 %25, %26
  %28 = trunc i64 %27 to i32
  store i32 %28, ptr %2, align 4
  br label %29

29:                                               ; preds = %18, %16
  %30 = load i32, ptr %2, align 4
  ret i32 %30
}

; Function Attrs: nounwind uwtable
define internal i32 @decode_cabac_intra_mb_type(ptr noundef %0, i32 noundef %1, i32 noundef %2) #0 {
  %4 = alloca i32, align 4
  %5 = alloca ptr, align 8
  %6 = alloca i32, align 4
  %7 = alloca i32, align 4
  %8 = alloca ptr, align 8
  %9 = alloca i32, align 4
  %10 = alloca i32, align 4
  %11 = alloca i32, align 4
  store ptr %0, ptr %5, align 8, !tbaa !9
  store i32 %1, ptr %6, align 4, !tbaa !77
  store i32 %2, ptr %7, align 4, !tbaa !77
  call void @llvm.lifetime.start.p0(i64 8, ptr %8) #9
  %12 = load ptr, ptr %5, align 8, !tbaa !9
  %13 = getelementptr inbounds nuw %struct.H264SliceContext, ptr %12, i32 0, i32 88
  %14 = load i32, ptr %6, align 4, !tbaa !77
  %15 = sext i32 %14 to i64
  %16 = getelementptr inbounds [1024 x i8], ptr %13, i64 0, i64 %15
  store ptr %16, ptr %8, align 8, !tbaa !79
  call void @llvm.lifetime.start.p0(i64 4, ptr %9) #9
  %17 = load i32, ptr %7, align 4, !tbaa !77
  %18 = icmp ne i32 %17, 0
  br i1 %18, label %19, label %54

19:                                               ; preds = %3
  call void @llvm.lifetime.start.p0(i64 4, ptr %10) #9
  store i32 0, ptr %10, align 4, !tbaa !77
  %20 = load ptr, ptr %5, align 8, !tbaa !9
  %21 = getelementptr inbounds nuw %struct.H264SliceContext, ptr %20, i32 0, i32 28
  %22 = getelementptr inbounds [2 x i32], ptr %21, i64 0, i64 0
  %23 = load i32, ptr %22, align 16, !tbaa !77
  %24 = and i32 %23, 6
  %25 = icmp ne i32 %24, 0
  br i1 %25, label %26, label %29

26:                                               ; preds = %19
  %27 = load i32, ptr %10, align 4, !tbaa !77
  %28 = add nsw i32 %27, 1
  store i32 %28, ptr %10, align 4, !tbaa !77
  br label %29

29:                                               ; preds = %26, %19
  %30 = load ptr, ptr %5, align 8, !tbaa !9
  %31 = getelementptr inbounds nuw %struct.H264SliceContext, ptr %30, i32 0, i32 26
  %32 = load i32, ptr %31, align 8, !tbaa !104
  %33 = and i32 %32, 6
  %34 = icmp ne i32 %33, 0
  br i1 %34, label %35, label %38

35:                                               ; preds = %29
  %36 = load i32, ptr %10, align 4, !tbaa !77
  %37 = add nsw i32 %36, 1
  store i32 %37, ptr %10, align 4, !tbaa !77
  br label %38

38:                                               ; preds = %35, %29
  %39 = load ptr, ptr %5, align 8, !tbaa !9
  %40 = getelementptr inbounds nuw %struct.H264SliceContext, ptr %39, i32 0, i32 87
  %41 = load ptr, ptr %8, align 8, !tbaa !79
  %42 = load i32, ptr %10, align 4, !tbaa !77
  %43 = sext i32 %42 to i64
  %44 = getelementptr inbounds i8, ptr %41, i64 %43
  %45 = call i32 @get_cabac_noinline(ptr noundef %40, ptr noundef %44)
  %46 = icmp eq i32 %45, 0
  br i1 %46, label %47, label %48

47:                                               ; preds = %38
  store i32 0, ptr %4, align 4
  store i32 1, ptr %11, align 4
  br label %51

48:                                               ; preds = %38
  %49 = load ptr, ptr %8, align 8, !tbaa !79
  %50 = getelementptr inbounds i8, ptr %49, i64 2
  store ptr %50, ptr %8, align 8, !tbaa !79
  store i32 0, ptr %11, align 4
  br label %51

51:                                               ; preds = %48, %47
  call void @llvm.lifetime.end.p0(i64 4, ptr %10) #9
  %52 = load i32, ptr %11, align 4
  switch i32 %52, label %121 [
    i32 0, label %53
  ]

53:                                               ; preds = %51
  br label %62

54:                                               ; preds = %3
  %55 = load ptr, ptr %5, align 8, !tbaa !9
  %56 = getelementptr inbounds nuw %struct.H264SliceContext, ptr %55, i32 0, i32 87
  %57 = load ptr, ptr %8, align 8, !tbaa !79
  %58 = call i32 @get_cabac_noinline(ptr noundef %56, ptr noundef %57)
  %59 = icmp eq i32 %58, 0
  br i1 %59, label %60, label %61

60:                                               ; preds = %54
  store i32 0, ptr %4, align 4
  store i32 1, ptr %11, align 4
  br label %121

61:                                               ; preds = %54
  br label %62

62:                                               ; preds = %61, %53
  %63 = load ptr, ptr %5, align 8, !tbaa !9
  %64 = getelementptr inbounds nuw %struct.H264SliceContext, ptr %63, i32 0, i32 87
  %65 = call i32 @get_cabac_terminate(ptr noundef %64)
  %66 = icmp ne i32 %65, 0
  br i1 %66, label %67, label %68

67:                                               ; preds = %62
  store i32 25, ptr %4, align 4
  store i32 1, ptr %11, align 4
  br label %121

68:                                               ; preds = %62
  store i32 1, ptr %9, align 4, !tbaa !77
  %69 = load ptr, ptr %5, align 8, !tbaa !9
  %70 = getelementptr inbounds nuw %struct.H264SliceContext, ptr %69, i32 0, i32 87
  %71 = load ptr, ptr %8, align 8, !tbaa !79
  %72 = getelementptr inbounds i8, ptr %71, i64 1
  %73 = call i32 @get_cabac_noinline(ptr noundef %70, ptr noundef %72)
  %74 = mul nsw i32 12, %73
  %75 = load i32, ptr %9, align 4, !tbaa !77
  %76 = add nsw i32 %75, %74
  store i32 %76, ptr %9, align 4, !tbaa !77
  %77 = load ptr, ptr %5, align 8, !tbaa !9
  %78 = getelementptr inbounds nuw %struct.H264SliceContext, ptr %77, i32 0, i32 87
  %79 = load ptr, ptr %8, align 8, !tbaa !79
  %80 = getelementptr inbounds i8, ptr %79, i64 2
  %81 = call i32 @get_cabac_noinline(ptr noundef %78, ptr noundef %80)
  %82 = icmp ne i32 %81, 0
  br i1 %82, label %83, label %96

83:                                               ; preds = %68
  %84 = load ptr, ptr %5, align 8, !tbaa !9
  %85 = getelementptr inbounds nuw %struct.H264SliceContext, ptr %84, i32 0, i32 87
  %86 = load ptr, ptr %8, align 8, !tbaa !79
  %87 = load i32, ptr %7, align 4, !tbaa !77
  %88 = add nsw i32 2, %87
  %89 = sext i32 %88 to i64
  %90 = getelementptr inbounds i8, ptr %86, i64 %89
  %91 = call i32 @get_cabac_noinline(ptr noundef %85, ptr noundef %90)
  %92 = mul nsw i32 4, %91
  %93 = add nsw i32 4, %92
  %94 = load i32, ptr %9, align 4, !tbaa !77
  %95 = add nsw i32 %94, %93
  store i32 %95, ptr %9, align 4, !tbaa !77
  br label %96

96:                                               ; preds = %83, %68
  %97 = load ptr, ptr %5, align 8, !tbaa !9
  %98 = getelementptr inbounds nuw %struct.H264SliceContext, ptr %97, i32 0, i32 87
  %99 = load ptr, ptr %8, align 8, !tbaa !79
  %100 = load i32, ptr %7, align 4, !tbaa !77
  %101 = add nsw i32 3, %100
  %102 = sext i32 %101 to i64
  %103 = getelementptr inbounds i8, ptr %99, i64 %102
  %104 = call i32 @get_cabac_noinline(ptr noundef %98, ptr noundef %103)
  %105 = mul nsw i32 2, %104
  %106 = load i32, ptr %9, align 4, !tbaa !77
  %107 = add nsw i32 %106, %105
  store i32 %107, ptr %9, align 4, !tbaa !77
  %108 = load ptr, ptr %5, align 8, !tbaa !9
  %109 = getelementptr inbounds nuw %struct.H264SliceContext, ptr %108, i32 0, i32 87
  %110 = load ptr, ptr %8, align 8, !tbaa !79
  %111 = load i32, ptr %7, align 4, !tbaa !77
  %112 = mul nsw i32 2, %111
  %113 = add nsw i32 3, %112
  %114 = sext i32 %113 to i64
  %115 = getelementptr inbounds i8, ptr %110, i64 %114
  %116 = call i32 @get_cabac_noinline(ptr noundef %109, ptr noundef %115)
  %117 = mul nsw i32 1, %116
  %118 = load i32, ptr %9, align 4, !tbaa !77
  %119 = add nsw i32 %118, %117
  store i32 %119, ptr %9, align 4, !tbaa !77
  %120 = load i32, ptr %9, align 4, !tbaa !77
  store i32 %120, ptr %4, align 4
  store i32 1, ptr %11, align 4
  br label %121

121:                                              ; preds = %96, %67, %60, %51
  call void @llvm.lifetime.end.p0(i64 4, ptr %9) #9
  call void @llvm.lifetime.end.p0(i64 8, ptr %8) #9
  %122 = load i32, ptr %4, align 4
  ret i32 %122
}