; Function Attrs: mustprogress nofree norecurse nosync nounwind willreturn memory(read, argmem: readwrite, inaccessiblemem: none) uwtable
define internal fastcc range(i32 0, 26) i32 @decode_cabac_intra_mb_type(ptr noundef captures(none) %0, i32 noundef range(i32 3, 33) %1, i32 noundef range(i32 0, 2) %2) unnamed_addr #3 {
  %4 = getelementptr inbounds nuw i8, ptr %0, i64 33696
  %5 = zext nneg i32 %1 to i64
  %6 = getelementptr inbounds nuw [1024 x i8], ptr %4, i64 0, i64 %5
  %.not = icmp eq i32 %2, 0
  br i1 %.not, label %19, label %7

7:                                                ; preds = %3
  %8 = getelementptr inbounds nuw i8, ptr %0, i64 20960
  %9 = load i32, ptr %8, align 16, !tbaa !93
  %10 = and i32 %9, 6
  %.not39 = icmp ne i32 %10, 0
  %spec.select = zext i1 %.not39 to i64
  %11 = getelementptr inbounds nuw i8, ptr %0, i64 20952
  %12 = load i32, ptr %11, align 8, !tbaa !106
  %13 = and i32 %12, 6
  %.not40 = icmp eq i32 %13, 0
  %14 = select i1 %.not39, i64 2, i64 1
  %.1 = select i1 %.not40, i64 %spec.select, i64 %14
  %15 = getelementptr inbounds nuw i8, ptr %0, i64 33664
  %16 = getelementptr inbounds nuw i8, ptr %6, i64 %.1
  %17 = tail call fastcc i32 @get_cabac_noinline(ptr noundef nonnull %15, ptr noundef nonnull %16)
  %.not41 = icmp eq i32 %17, 0
  %18 = getelementptr inbounds nuw i8, ptr %6, i64 2
  br i1 %.not41, label %85, label %23

19:                                               ; preds = %3
  %20 = getelementptr inbounds nuw i8, ptr %0, i64 33664
  %21 = tail call fastcc i32 @get_cabac_noinline(ptr noundef nonnull %20, ptr noundef nonnull %6)
  %22 = icmp eq i32 %21, 0
  br i1 %22, label %85, label %23

23:                                               ; preds = %19, %7
  %.136 = phi ptr [ %18, %7 ], [ %6, %19 ]
  %24 = getelementptr inbounds nuw i8, ptr %0, i64 33664
  %25 = getelementptr inbounds nuw i8, ptr %0, i64 33668
  %26 = load i32, ptr %25, align 4, !tbaa !138
  %27 = add nsw i32 %26, -2
  store i32 %27, ptr %25, align 4, !tbaa !138
  %28 = load i32, ptr %24, align 8, !tbaa !139
  %29 = shl i32 %27, 17
  %30 = icmp slt i32 %28, %29
  br i1 %30, label %31, label %get_cabac_terminate.exit

31:                                               ; preds = %23
  %32 = add nsw i32 %26, -258
  %33 = lshr i32 %32, 31
  %34 = shl i32 %27, %33
  store i32 %34, ptr %25, align 4, !tbaa !138
  %35 = shl i32 %28, %33
  store i32 %35, ptr %24, align 8, !tbaa !139
  %36 = and i32 %35, 65535
  %.not.i.i = icmp eq i32 %36, 0
  br i1 %.not.i.i, label %37, label %get_cabac_terminate.exit.thread

37:                                               ; preds = %31
  %38 = getelementptr inbounds nuw i8, ptr %0, i64 33680
  %39 = load ptr, ptr %38, align 8, !tbaa !140
  %40 = load i8, ptr %39, align 1, !tbaa !77
  %41 = zext i8 %40 to i32
  %42 = shl nuw nsw i32 %41, 9
  %43 = getelementptr inbounds nuw i8, ptr %39, i64 1
  %44 = load i8, ptr %43, align 1, !tbaa !77
  %45 = zext i8 %44 to i32
  %46 = shl nuw nsw i32 %45, 1
  %47 = or disjoint i32 %46, %42
  %48 = add i32 %35, -65535
  %49 = add i32 %48, %47
  store i32 %49, ptr %24, align 8, !tbaa !139
  %50 = getelementptr inbounds nuw i8, ptr %39, i64 2
  store ptr %50, ptr %38, align 8, !tbaa !140
  br label %get_cabac_terminate.exit.thread

get_cabac_terminate.exit:                         ; preds = %23
  %51 = getelementptr inbounds nuw i8, ptr %0, i64 33680
  %52 = load ptr, ptr %51, align 8, !tbaa !140
  %53 = getelementptr inbounds nuw i8, ptr %0, i64 33672
  %54 = load ptr, ptr %53, align 8, !tbaa !184
  %55 = ptrtoint ptr %52 to i64
  %56 = ptrtoint ptr %54 to i64
  %57 = sub i64 %55, %56
  %58 = and i64 %57, 4294967295
  %.not42 = icmp eq i64 %58, 0
  br i1 %.not42, label %get_cabac_terminate.exit.thread, label %85

get_cabac_terminate.exit.thread:                  ; preds = %37, %31, %get_cabac_terminate.exit
  %59 = getelementptr inbounds nuw i8, ptr %.136, i64 1
  %60 = tail call fastcc i32 @get_cabac_noinline(ptr noundef nonnull %24, ptr noundef nonnull %59)
  %61 = mul nuw nsw i32 %60, 12
  %62 = getelementptr inbounds nuw i8, ptr %.136, i64 2
  %63 = tail call fastcc i32 @get_cabac_noinline(ptr noundef nonnull %24, ptr noundef nonnull %62)
  %.not43 = icmp eq i32 %63, 0
  br i1 %.not43, label %get_cabac_terminate.exit.thread._crit_edge, label %65

get_cabac_terminate.exit.thread._crit_edge:       ; preds = %get_cabac_terminate.exit.thread
  %64 = or disjoint i32 %61, 1
  %.pre = zext nneg i32 %2 to i64
  br label %73

65:                                               ; preds = %get_cabac_terminate.exit.thread
  %66 = zext nneg i32 %2 to i64
  %67 = getelementptr inbounds nuw i8, ptr %.136, i64 %66
  %68 = getelementptr inbounds nuw i8, ptr %67, i64 2
  %69 = tail call fastcc i32 @get_cabac_noinline(ptr noundef nonnull %24, ptr noundef nonnull %68)
  %70 = shl nuw nsw i32 %69, 2
  %71 = add nuw nsw i32 %61, 5
  %72 = add nuw nsw i32 %71, %70
  br label %73

73:                                               ; preds = %get_cabac_terminate.exit.thread._crit_edge, %65
  %.pre-phi = phi i64 [ %.pre, %get_cabac_terminate.exit.thread._crit_edge ], [ %66, %65 ]
  %.034 = phi i32 [ %64, %get_cabac_terminate.exit.thread._crit_edge ], [ %72, %65 ]
  %74 = getelementptr inbounds nuw i8, ptr %.136, i64 %.pre-phi
  %75 = getelementptr inbounds nuw i8, ptr %74, i64 3
  %76 = tail call fastcc i32 @get_cabac_noinline(ptr noundef nonnull %24, ptr noundef nonnull %75)
  %77 = shl nuw nsw i32 %76, 1
  %78 = add nuw nsw i32 %77, %.034
  %79 = shl nuw nsw i32 %2, 1
  %80 = zext nneg i32 %79 to i64
  %81 = getelementptr inbounds nuw i8, ptr %.136, i64 %80
  %82 = getelementptr inbounds nuw i8, ptr %81, i64 3
  %83 = tail call fastcc i32 @get_cabac_noinline(ptr noundef nonnull %24, ptr noundef nonnull %82)
  %84 = add nuw nsw i32 %78, %83
  br label %85

85:                                               ; preds = %get_cabac_terminate.exit, %19, %7, %73
  %.138 = phi i32 [ %84, %73 ], [ 0, %7 ], [ 0, %19 ], [ 25, %get_cabac_terminate.exit ]
  ret i32 %.138
}